target datalayout = "e-m:e-p270:32:32-p271:32:32-p272:64:64-i64:64-i128:128-f80:128-n8:16:32:64-S128"
target triple = "x86_64-pc-linux-gnu"

%struct.Dsd_Manager_t_ = type { ptr, ptr, i32, i32, i32, ptr, ptr, ptr, i32 }
%struct.Dsd_Node_t_ = type { i32, ptr, ptr, ptr, i64, i16, i16 }
%struct.DdNode = type { i32, i32, ptr, %union.anon, i64 }
%union.anon = type { %struct.DdChildren }
%struct.DdChildren = type { ptr, ptr }
%struct.DdManager = type { %struct.DdNode, ptr, ptr, ptr, ptr, ptr, ptr, ptr, i32, i32, double, double, double, i32, i32, i32, i32, i32, i32, ptr, ptr, %struct.DdSubtable, i32, i32, i32, i32, i32, i32, i32, double, i32, i32, i32, ptr, i64, double, i32, ptr, ptr, ptr, ptr, ptr, ptr, ptr, i32, ptr, ptr, ptr, ptr, ptr, ptr, i32, i32, i32, double, i32, i32, i32, i32, double, double, i32, i32, i32, i32, i32, i32, i32, i32, i32, ptr, ptr, i32, i32, i32, i32, i32, i32, ptr, ptr, ptr, ptr, ptr, ptr, ptr, ptr, i32, i64, i64, i64, i32, i64, i64, double, double, double, double, double, double, i32, ptr, ptr, i64 }
%struct.DdSubtable = type { ptr, i32, i32, i32, i32, i32, i32, i32, i32, i32, i32, i32 }

; Function Attrs: nounwind uwtable
define internal void @dsdKernelComputeSumOfComponents(ptr noundef %0, ptr noundef %1, i32 noundef %2, ptr noundef %3, ptr noundef %4, i32 noundef %5) #0 {
  %7 = alloca ptr, align 8
  %8 = alloca ptr, align 8
  %9 = alloca i32, align 4
  %10 = alloca ptr, align 8
  %11 = alloca ptr, align 8
  %12 = alloca i32, align 4
  %13 = alloca ptr, align 8
  %14 = alloca ptr, align 8
  %15 = alloca ptr, align 8
  %16 = alloca ptr, align 8
  %17 = alloca ptr, align 8
  %18 = alloca ptr, align 8
  %19 = alloca ptr, align 8
  %20 = alloca i32, align 4
  store ptr %0, ptr %7, align 8, !tbaa !3
  store ptr %1, ptr %8, align 8, !tbaa !63
  store i32 %2, ptr %9, align 4, !tbaa !10
  store ptr %3, ptr %10, align 8, !tbaa !8
  store ptr %4, ptr %11, align 8, !tbaa !8
  store i32 %5, ptr %12, align 4, !tbaa !10
  call void @llvm.lifetime.start.p0(i64 8, ptr %13) #6
  %21 = load ptr, ptr %7, align 8, !tbaa !3
  %22 = getelementptr inbounds nuw %struct.Dsd_Manager_t_, ptr %21, i32 0, i32 0
  %23 = load ptr, ptr %22, align 8, !tbaa !12
  store ptr %23, ptr %13, align 8, !tbaa !18
  call void @llvm.lifetime.start.p0(i64 8, ptr %14) #6
  call void @llvm.lifetime.start.p0(i64 8, ptr %15) #6
  call void @llvm.lifetime.start.p0(i64 8, ptr %16) #6
  call void @llvm.lifetime.start.p0(i64 8, ptr %17) #6
  store ptr null, ptr %17, align 8, !tbaa !25
  call void @llvm.lifetime.start.p0(i64 8, ptr %18) #6
  call void @llvm.lifetime.start.p0(i64 8, ptr %19) #6
  call void @llvm.lifetime.start.p0(i64 4, ptr %20) #6
  %24 = load ptr, ptr %13, align 8, !tbaa !18
  %25 = getelementptr inbounds nuw %struct.DdManager, ptr %24, i32 0, i32 1
  %26 = load ptr, ptr %25, align 8, !tbaa !57
  %27 = ptrtoint ptr %26 to i64
  %28 = xor i64 %27, 1
  %29 = inttoptr i64 %28 to ptr
  store ptr %29, ptr %14, align 8, !tbaa !25
  %30 = load ptr, ptr %14, align 8, !tbaa !25
  call void @Cudd_Ref(ptr noundef %30)
  %31 = load ptr, ptr %11, align 8, !tbaa !8
  %32 = icmp ne ptr %31, null
  br i1 %32, label %33, label %38

33:                                               ; preds = %6
  %34 = load ptr, ptr %13, align 8, !tbaa !18
  %35 = getelementptr inbounds nuw %struct.DdManager, ptr %34, i32 0, i32 1
  %36 = load ptr, ptr %35, align 8, !tbaa !57
  store ptr %36, ptr %17, align 8, !tbaa !25
  %37 = load ptr, ptr %17, align 8, !tbaa !25
  call void @Cudd_Ref(ptr noundef %37)
  br label %38

38:                                               ; preds = %33, %6
  store i32 0, ptr %20, align 4, !tbaa !10
  br label %39

39:                                               ; preds = %98, %38
  %40 = load i32, ptr %20, align 4, !tbaa !10
  %41 = load i32, ptr %9, align 4, !tbaa !10
  %42 = icmp slt i32 %40, %41
  br i1 %42, label %43, label %101

43:                                               ; preds = %39
  %44 = load ptr, ptr %8, align 8, !tbaa !63
  %45 = load i32, ptr %20, align 4, !tbaa !10
  %46 = sext i32 %45 to i64
  %47 = getelementptr inbounds ptr, ptr %44, i64 %46
  %48 = load ptr, ptr %47, align 8, !tbaa !27
  store ptr %48, ptr %18, align 8, !tbaa !27
  %49 = load ptr, ptr %18, align 8, !tbaa !27
  %50 = ptrtoint ptr %49 to i64
  %51 = and i64 %50, -2
  %52 = inttoptr i64 %51 to ptr
  store ptr %52, ptr %19, align 8, !tbaa !27
  %53 = load ptr, ptr %18, align 8, !tbaa !27
  %54 = load ptr, ptr %19, align 8, !tbaa !27
  %55 = icmp ne ptr %53, %54
  br i1 %55, label %56, label %63

56:                                               ; preds = %43
  %57 = load ptr, ptr %19, align 8, !tbaa !27
  %58 = getelementptr inbounds nuw %struct.Dsd_Node_t_, ptr %57, i32 0, i32 1
  %59 = load ptr, ptr %58, align 8, !tbaa !59
  %60 = ptrtoint ptr %59 to i64
  %61 = xor i64 %60, 1
  %62 = inttoptr i64 %61 to ptr
  br label %67

63:                                               ; preds = %43
  %64 = load ptr, ptr %19, align 8, !tbaa !27
  %65 = getelementptr inbounds nuw %struct.Dsd_Node_t_, ptr %64, i32 0, i32 1
  %66 = load ptr, ptr %65, align 8, !tbaa !59
  br label %67

67:                                               ; preds = %63, %56
  %68 = phi ptr [ %62, %56 ], [ %66, %63 ]
  store ptr %68, ptr %15, align 8, !tbaa !25
  %69 = load i32, ptr %12, align 4, !tbaa !10
  %70 = icmp ne i32 %69, 0
  br i1 %70, label %71, label %76

71:                                               ; preds = %67
  %72 = load ptr, ptr %13, align 8, !tbaa !18
  %73 = load ptr, ptr %14, align 8, !tbaa !25
  store ptr %73, ptr %16, align 8, !tbaa !25
  %74 = load ptr, ptr %15, align 8, !tbaa !25
  %75 = call ptr @Cudd_bddXor(ptr noundef %72, ptr noundef %73, ptr noundef %74)
  store ptr %75, ptr %14, align 8, !tbaa !25
  br label %81

76:                                               ; preds = %67
  %77 = load ptr, ptr %13, align 8, !tbaa !18
  %78 = load ptr, ptr %14, align 8, !tbaa !25
  store ptr %78, ptr %16, align 8, !tbaa !25
  %79 = load ptr, ptr %15, align 8, !tbaa !25
  %80 = call ptr @Cudd_bddOr(ptr noundef %77, ptr noundef %78, ptr noundef %79)
  store ptr %80, ptr %14, align 8, !tbaa !25
  br label %81

81:                                               ; preds = %76, %71
  %82 = load ptr, ptr %14, align 8, !tbaa !25
  call void @Cudd_Ref(ptr noundef %82)
  %83 = load ptr, ptr %13, align 8, !tbaa !18
  %84 = load ptr, ptr %16, align 8, !tbaa !25
  call void @Cudd_RecursiveDeref(ptr noundef %83, ptr noundef %84)
  %85 = load ptr, ptr %11, align 8, !tbaa !8
  %86 = icmp ne ptr %85, null
  br i1 %86, label %87, label %97

87:                                               ; preds = %81
  %88 = load ptr, ptr %13, align 8, !tbaa !18
  %89 = load ptr, ptr %17, align 8, !tbaa !25
  store ptr %89, ptr %16, align 8, !tbaa !25
  %90 = load ptr, ptr %19, align 8, !tbaa !27
  %91 = getelementptr inbounds nuw %struct.Dsd_Node_t_, ptr %90, i32 0, i32 2
  %92 = load ptr, ptr %91, align 8, !tbaa !32
  %93 = call ptr @Cudd_bddAnd(ptr noundef %88, ptr noundef %89, ptr noundef %92)
  store ptr %93, ptr %17, align 8, !tbaa !25
  %94 = load ptr, ptr %17, align 8, !tbaa !25
  call void @Cudd_Ref(ptr noundef %94)
  %95 = load ptr, ptr %13, align 8, !tbaa !18
  %96 = load ptr, ptr %16, align 8, !tbaa !25
  call void @Cudd_RecursiveDeref(ptr noundef %95, ptr noundef %96)
  br label %97

97:                                               ; preds = %87, %81
  br label %98

98:                                               ; preds = %97
  %99 = load i32, ptr %20, align 4, !tbaa !10
  %100 = add nsw i32 %99, 1
  store i32 %100, ptr %20, align 4, !tbaa !10
  br label %39, !llvm.loop !84

101:                                              ; preds = %39
  %102 = load ptr, ptr %14, align 8, !tbaa !25
  call void @Cudd_Deref(ptr noundef %102)
  %103 = load ptr, ptr %14, align 8, !tbaa !25
  %104 = load ptr, ptr %10, align 8, !tbaa !8
  store ptr %103, ptr %104, align 8, !tbaa !25
  %105 = load ptr, ptr %11, align 8, !tbaa !8
  %106 = icmp ne ptr %105, null
  br i1 %106, label %107, label %111

107:                                              ; preds = %101
  %108 = load ptr, ptr %17, align 8, !tbaa !25
  call void @Cudd_Deref(ptr noundef %108)
  %109 = load ptr, ptr %17, align 8, !tbaa !25
  %110 = load ptr, ptr %11, align 8, !tbaa !8
  store ptr %109, ptr %110, align 8, !tbaa !25
  br label %111

111:                                              ; preds = %107, %101
  call void @llvm.lifetime.end.p0(i64 4, ptr %20) #6
  call void @llvm.lifetime.end.p0(i64 8, ptr %19) #6
  call void @llvm.lifetime.end.p0(i64 8, ptr %18) #6
  call void @llvm.lifetime.end.p0(i64 8, ptr %17) #6
  call void @llvm.lifetime.end.p0(i64 8, ptr %16) #6
  call void @llvm.lifetime.end.p0(i64 8, ptr %15) #6
  call void @llvm.lifetime.end.p0(i64 8, ptr %14) #6
  call void @llvm.lifetime.end.p0(i64 8, ptr %13) #6
  ret void
}