; Function Attrs: nounwind uwtable
define internal fastcc void @dsdKernelComputeSumOfComponents(ptr %.0.val, ptr noundef readonly captures(none) %0, i32 noundef %1, ptr noundef nonnull writeonly captures(none) %2, ptr noundef writeonly %3, i32 noundef range(i32 0, 2) %4) unnamed_addr #0 {
  %6 = getelementptr inbounds nuw i8, ptr %.0.val, i64 40
  %7 = load ptr, ptr %6, align 8, !tbaa !55
  %8 = ptrtoint ptr %7 to i64
  %9 = xor i64 %8, 1
  %10 = inttoptr i64 %9 to ptr
  tail call void @Cudd_Ref(ptr noundef %10) #11
  %.not = icmp eq ptr %3, null
  br i1 %.not, label %11, label %.thread

11:                                               ; preds = %5
  %12 = icmp sgt i32 %1, 0
  br i1 %12, label %.lr.ph.split.us, label %._crit_edge

.thread:                                          ; preds = %5
  %13 = load ptr, ptr %6, align 8, !tbaa !55
  tail call void @Cudd_Ref(ptr noundef %13) #11
  %14 = icmp sgt i32 %1, 0
  br i1 %14, label %.lr.ph.split, label %._crit_edge.thread

._crit_edge.thread:                               ; preds = %.thread
  tail call void @Cudd_Deref(ptr noundef %10) #11
  store ptr %10, ptr %2, align 8, !tbaa !22
  br label %69

.lr.ph.split.us:                                  ; preds = %11
  %.not47 = icmp eq i32 %4, 0
  %wide.trip.count39 = zext nneg i32 %1 to i64
  br i1 %.not47, label %.lr.ph.split.us.split.us, label %.lr.ph.split.us.split

.lr.ph.split.us.split.us:                         ; preds = %.lr.ph.split.us, %.lr.ph.split.us.split.us
  %indvars.iv36 = phi i64 [ %indvars.iv.next37, %.lr.ph.split.us.split.us ], [ 0, %.lr.ph.split.us ]
  %.0392.us.us = phi ptr [ %26, %.lr.ph.split.us.split.us ], [ %10, %.lr.ph.split.us ]
  %15 = getelementptr inbounds nuw ptr, ptr %0, i64 %indvars.iv36
  %16 = load ptr, ptr %15, align 8, !tbaa !24
  %17 = ptrtoint ptr %16 to i64
  %18 = and i64 %17, -2
  %19 = inttoptr i64 %18 to ptr
  %.not46.us.us = icmp eq ptr %16, %19
  %20 = getelementptr inbounds nuw i8, ptr %19, i64 8
  %21 = load ptr, ptr %20, align 8, !tbaa !58
  %22 = ptrtoint ptr %21 to i64
  %23 = xor i64 %22, 1
  %24 = inttoptr i64 %23 to ptr
  %25 = select i1 %.not46.us.us, ptr %21, ptr %24
  %26 = tail call ptr @Cudd_bddOr(ptr noundef %.0.val, ptr noundef %.0392.us.us, ptr noundef %25) #11
  tail call void @Cudd_Ref(ptr noundef %26) #11
  tail call void @Cudd_RecursiveDeref(ptr noundef %.0.val, ptr noundef %.0392.us.us) #11
  %indvars.iv.next37 = add nuw nsw i64 %indvars.iv36, 1
  %exitcond40.not = icmp eq i64 %indvars.iv.next37, %wide.trip.count39
  br i1 %exitcond40.not, label %._crit_edge, label %.lr.ph.split.us.split.us, !llvm.loop !78

.lr.ph.split.us.split:                            ; preds = %.lr.ph.split.us, %.lr.ph.split.us.split
  %indvars.iv31 = phi i64 [ %indvars.iv.next32, %.lr.ph.split.us.split ], [ 0, %.lr.ph.split.us ]
  %.0392.us = phi ptr [ %38, %.lr.ph.split.us.split ], [ %10, %.lr.ph.split.us ]
  %27 = getelementptr inbounds nuw ptr, ptr %0, i64 %indvars.iv31
  %28 = load ptr, ptr %27, align 8, !tbaa !24
  %29 = ptrtoint ptr %28 to i64
  %30 = and i64 %29, -2
  %31 = inttoptr i64 %30 to ptr
  %.not46.us = icmp eq ptr %28, %31
  %32 = getelementptr inbounds nuw i8, ptr %31, i64 8
  %33 = load ptr, ptr %32, align 8, !tbaa !58
  %34 = ptrtoint ptr %33 to i64
  %35 = xor i64 %34, 1
  %36 = inttoptr i64 %35 to ptr
  %37 = select i1 %.not46.us, ptr %33, ptr %36
  %38 = tail call ptr @Cudd_bddXor(ptr noundef %.0.val, ptr noundef %.0392.us, ptr noundef %37) #11
  tail call void @Cudd_Ref(ptr noundef %38) #11
  tail call void @Cudd_RecursiveDeref(ptr noundef %.0.val, ptr noundef %.0392.us) #11
  %indvars.iv.next32 = add nuw nsw i64 %indvars.iv31, 1
  %exitcond35.not = icmp eq i64 %indvars.iv.next32, %wide.trip.count39
  br i1 %exitcond35.not, label %._crit_edge, label %.lr.ph.split.us.split, !llvm.loop !78

.lr.ph.split:                                     ; preds = %.thread
  %.not4744 = icmp eq i32 %4, 0
  %wide.trip.count29 = zext nneg i32 %1 to i64
  br i1 %.not4744, label %.lr.ph.split.split.us, label %.lr.ph.split.split

.lr.ph.split.split.us:                            ; preds = %.lr.ph.split, %.lr.ph.split.split.us
  %indvars.iv26 = phi i64 [ %indvars.iv.next27, %.lr.ph.split.split.us ], [ 0, %.lr.ph.split ]
  %.0392.us7 = phi ptr [ %50, %.lr.ph.split.split.us ], [ %10, %.lr.ph.split ]
  %.1421.us8 = phi ptr [ %53, %.lr.ph.split.split.us ], [ %13, %.lr.ph.split ]
  %39 = getelementptr inbounds nuw ptr, ptr %0, i64 %indvars.iv26
  %40 = load ptr, ptr %39, align 8, !tbaa !24
  %41 = ptrtoint ptr %40 to i64
  %42 = and i64 %41, -2
  %43 = inttoptr i64 %42 to ptr
  %.not46.us9 = icmp eq ptr %40, %43
  %44 = getelementptr inbounds nuw i8, ptr %43, i64 8
  %45 = load ptr, ptr %44, align 8, !tbaa !58
  %46 = ptrtoint ptr %45 to i64
  %47 = xor i64 %46, 1
  %48 = inttoptr i64 %47 to ptr
  %49 = select i1 %.not46.us9, ptr %45, ptr %48
  %50 = tail call ptr @Cudd_bddOr(ptr noundef %.0.val, ptr noundef %.0392.us7, ptr noundef %49) #11
  tail call void @Cudd_Ref(ptr noundef %50) #11
  tail call void @Cudd_RecursiveDeref(ptr noundef %.0.val, ptr noundef %.0392.us7) #11
  %51 = getelementptr inbounds nuw i8, ptr %43, i64 16
  %52 = load ptr, ptr %51, align 8, !tbaa !29
  %53 = tail call ptr @Cudd_bddAnd(ptr noundef %.0.val, ptr noundef %.1421.us8, ptr noundef %52) #11
  tail call void @Cudd_Ref(ptr noundef %53) #11
  tail call void @Cudd_RecursiveDeref(ptr noundef %.0.val, ptr noundef %.1421.us8) #11
  %indvars.iv.next27 = add nuw nsw i64 %indvars.iv26, 1
  %exitcond30.not = icmp eq i64 %indvars.iv.next27, %wide.trip.count29
  br i1 %exitcond30.not, label %._crit_edge, label %.lr.ph.split.split.us, !llvm.loop !78

.lr.ph.split.split:                               ; preds = %.lr.ph.split, %.lr.ph.split.split
  %indvars.iv = phi i64 [ %indvars.iv.next, %.lr.ph.split.split ], [ 0, %.lr.ph.split ]
  %.0392 = phi ptr [ %65, %.lr.ph.split.split ], [ %10, %.lr.ph.split ]
  %.1421 = phi ptr [ %68, %.lr.ph.split.split ], [ %13, %.lr.ph.split ]
  %54 = getelementptr inbounds nuw ptr, ptr %0, i64 %indvars.iv
  %55 = load ptr, ptr %54, align 8, !tbaa !24
  %56 = ptrtoint ptr %55 to i64
  %57 = and i64 %56, -2
  %58 = inttoptr i64 %57 to ptr
  %.not46 = icmp eq ptr %55, %58
  %59 = getelementptr inbounds nuw i8, ptr %58, i64 8
  %60 = load ptr, ptr %59, align 8, !tbaa !58
  %61 = ptrtoint ptr %60 to i64
  %62 = xor i64 %61, 1
  %63 = inttoptr i64 %62 to ptr
  %64 = select i1 %.not46, ptr %60, ptr %63
  %65 = tail call ptr @Cudd_bddXor(ptr noundef %.0.val, ptr noundef %.0392, ptr noundef %64) #11
  tail call void @Cudd_Ref(ptr noundef %65) #11
  tail call void @Cudd_RecursiveDeref(ptr noundef %.0.val, ptr noundef %.0392) #11
  %66 = getelementptr inbounds nuw i8, ptr %58, i64 16
  %67 = load ptr, ptr %66, align 8, !tbaa !29
  %68 = tail call ptr @Cudd_bddAnd(ptr noundef %.0.val, ptr noundef %.1421, ptr noundef %67) #11
  tail call void @Cudd_Ref(ptr noundef %68) #11
  tail call void @Cudd_RecursiveDeref(ptr noundef %.0.val, ptr noundef %.1421) #11
  %indvars.iv.next = add nuw nsw i64 %indvars.iv, 1
  %exitcond.not = icmp eq i64 %indvars.iv.next, %wide.trip.count29
  br i1 %exitcond.not, label %._crit_edge, label %.lr.ph.split.split, !llvm.loop !78

._crit_edge:                                      ; preds = %.lr.ph.split.split, %.lr.ph.split.split.us, %.lr.ph.split.us.split, %.lr.ph.split.us.split.us, %11
  %.142.lcssa = phi ptr [ null, %11 ], [ null, %.lr.ph.split.us.split.us ], [ null, %.lr.ph.split.us.split ], [ %53, %.lr.ph.split.split.us ], [ %68, %.lr.ph.split.split ]
  %.039.lcssa = phi ptr [ %10, %11 ], [ %26, %.lr.ph.split.us.split.us ], [ %38, %.lr.ph.split.us.split ], [ %50, %.lr.ph.split.split.us ], [ %65, %.lr.ph.split.split ]
  tail call void @Cudd_Deref(ptr noundef %.039.lcssa) #11
  store ptr %.039.lcssa, ptr %2, align 8, !tbaa !22
  br i1 %.not, label %70, label %69

69:                                               ; preds = %._crit_edge.thread, %._crit_edge
  %.142.lcssa49 = phi ptr [ %13, %._crit_edge.thread ], [ %.142.lcssa, %._crit_edge ]
  tail call void @Cudd_Deref(ptr noundef %.142.lcssa49) #11
  store ptr %.142.lcssa49, ptr %3, align 8, !tbaa !22
  br label %70

70:                                               ; preds = %69, %._crit_edge
  ret void
}